; Function Attrs: nounwind sspstrong uwtable
define internal range(i64 1, -7) i64 @ossl_sslctx_set_options(i64 noundef returned %0, i64 noundef %1) #0 {
  %3 = icmp eq i64 %0, 0
  %4 = and i64 %0, 7
  %5 = icmp ne i64 %4, 0
  %6 = or i1 %3, %5
  br i1 %6, label %RB_OBJ_FROZEN.exit.thread.i, label %RB_FL_ABLE.exit.i.i, !prof !17

RB_FL_ABLE.exit.i.i:                              ; preds = %2
  %7 = inttoptr i64 %0 to ptr
  %8 = load i64, ptr %7, align 8, !tbaa !18
  %9 = and i64 %8, 31
  %.not.i.i = icmp eq i64 %9, 27
  %10 = and i64 %8, 2048
  %11 = icmp ne i64 %10, 0
  %or.cond.i = or i1 %.not.i.i, %11
  br i1 %or.cond.i, label %RB_OBJ_FROZEN.exit.thread.i, label %rbimpl_RB_TYPE_P_fastpath.exit.i, !prof !19

RB_OBJ_FROZEN.exit.thread.i:                      ; preds = %RB_FL_ABLE.exit.i.i, %2
  tail call void @rb_error_frozen_object(i64 noundef %0) #10
  unreachable

rbimpl_RB_TYPE_P_fastpath.exit.i:                 ; preds = %RB_FL_ABLE.exit.i.i
  %12 = icmp ne i64 %9, 5
  %13 = and i64 %8, 49152
  %.not.i = icmp eq i64 %13, 0
  %or.cond8.i = or i1 %12, %.not.i
  br i1 %or.cond8.i, label %rb_check_frozen_inline.exit, label %14, !prof !20

14:                                               ; preds = %rbimpl_RB_TYPE_P_fastpath.exit.i
  tail call void @rb_str_modify(i64 noundef %0) #9
  br label %rb_check_frozen_inline.exit

rb_check_frozen_inline.exit:                      ; preds = %rbimpl_RB_TYPE_P_fastpath.exit.i, %14
  %15 = tail call ptr @rb_check_typeddata(i64 noundef %0, ptr noundef nonnull @ossl_sslctx_type) #9
  %16 = tail call i64 @SSL_CTX_get_options(ptr noundef %15) #9
  %17 = tail call i64 @SSL_CTX_clear_options(ptr noundef %15, i64 noundef %16) #9
  %18 = icmp eq i64 %1, 4
  br i1 %18, label %rb_num2ulong_inline.exit, label %19

19:                                               ; preds = %rb_check_frozen_inline.exit
  %20 = and i64 %1, 1
  %.not.i8 = icmp eq i64 %20, 0
  br i1 %.not.i8, label %23, label %21

21:                                               ; preds = %19
  %22 = ashr i64 %1, 1
  br label %rb_num2ulong_inline.exit

23:                                               ; preds = %19
  %24 = tail call i64 @rb_num2ulong(i64 noundef %1) #9
  br label %rb_num2ulong_inline.exit

rb_num2ulong_inline.exit:                         ; preds = %23, %21, %rb_check_frozen_inline.exit
  %.0.i.sink = phi i64 [ 2147485776, %rb_check_frozen_inline.exit ], [ %22, %21 ], [ %24, %23 ]
  %25 = tail call i64 @SSL_CTX_set_options(ptr noundef %15, i64 noundef %.0.i.sink) #9
  ret i64 %0
}